#include <math.h>
#include <stdio.h>
#include <stdlib.h>
#include <string.h>

main()
{
   int w,i,n;
   
   int  a[12]={31,28,31,30,31,30,31,31,30,31,30,31};
   scanf("%d",&w);
   n=a[0];
   if (w==7)
   printf("1\n");
   if (w==4)
   printf("2\n"); 
   for (i=1;i<11;i++)
    {
      n+=a[i];
     
       if ((((n-1)%7+w)%7)==6)
     
     
     
       
      printf("%d\n",i+2);
    
    }

      }
      
